Certificate:
    Data:
        Version: 3 (0x2)
        Serial Number: 1 (0x1)
    Signature Algorithm: sha256WithRSAEncryption
        Issuer: C=US, ST=Unset, L=Unset, O=Unset, CN=www.example.com
        Validity
            Not Before: Nov  1 15:09:09 2014 GMT
            Not After : Oct 29 15:09:09 2024 GMT
        Subject: C=US, ST=Unset, O=Unset, CN=www.example.com
        Subject Public Key Info:
            Public Key Algorithm: rsaEncryption
                Public-Key: (2048 bit)
                Modulus:
                    00:b0:4b:ef:f3:21:96:16:a5:fe:ce:10:3d:48:9b:
                    72:bb:5d:d6:13:e1:cd:be:1b:70:1f:06:bd:42:9c:
                    16:e5:be:5a:70:77:0e:38:ed:c4:28:99:8a:37:6f:
                    a7:1b:d9:ad:f3:2b:15:49:ba:95:2b:8a:e0:7d:61:
                    a7:2f:e2:9f:70:5b:02:56:d4:92:72:46:0e:f7:b3:
                    d9:73:9f:23:ca:81:ba:86:ae:67:e0:2d:0b:8d:26:
                    e4:c7:c4:b6:b1:9b:f2:c0:f1:fa:4a:62:5c:f3:ef:
                    21:c8:c8:ba:01:3b:76:46:04:2d:f8:63:c3:2e:41:
                    f1:27:e9:c7:4f:75:7c:37:7a:c9:4a:51:8d:11:1d:
                    e7:93:02:de:4a:cc:9e:a8:bb:96:f8:bb:88:9c:78:
                    2c:72:03:5a:54:a0:b7:82:4e:73:93:58:ca:c3:45:
                    87:99:25:59:69:c3:e2:4a:e7:f4:ba:45:fd:9f:e9:
                    70:39:0a:13:f7:cd:07:8f:0a:8a:24:e8:7c:dd:90:
                    6e:02:72:a7:69:66:90:2b:87:07:32:9d:3d:a5:c5:
                    9d:14:86:4a:c0:5e:74:20:1c:13:43:02:58:77:69:
                    e2:fe:41:94:73:7d:54:fa:ec:33:b0:05:a0:49:0a:
                    68:99:d1:02:52:ec:af:21:eb:d2:da:33:ab:79:0e:
                    1a:67
                Exponent: 65537 (0x10001)
        X509v3 extensions:
            X509v3 Basic Constraints: 
                CA:FALSE
            X509v3 Subject Key Identifier: 
                FF:E0:D1:39:9C:44:17:93:7C:FB:34:6C:3B:0E:FA:5B:DA:33:B4:7B
            X509v3 Authority Key Identifier: 
                keyid:1E:C0:16:61:82:B1:9F:55:F1:99:F7:04:9C:9E:94:09:2D:4A:56:0D

    Signature Algorithm: sha256WithRSAEncryption
         05:23:4d:17:bd:97:97:c9:8f:7f:e9:d1:67:96:0d:a4:b1:a3:
         b0:13:be:e8:e8:92:8e:ba:44:6a:e8:f6:31:a2:3d:8c:27:e2:
         45:0e:e4:47:3c:e2:4e:0c:bd:31:58:cc:c6:c7:c4:a0:33:36:
         77:e2:7c:6f:6a:96:49:b5:df:6e:8d:04:ca:77:a1:65:4c:87:
         bb:7d:8f:61:83:0e:ad:66:ad:ce:78:79:78:fa:43:67:8f:8f:
         85:22:65:b6:a8:b0:8b:74:d7:1e:5f:22:33:96:90:5d:10:93:
         83:fa:54:52:8b:b7:c6:da:e6:62:8d:32:9d:24:02:77:01:38:
         20:5b:74:67:b2:01:95:2d:ee:47:5b:f3:79:b3:d2:83:3e:22:
         93:f4:a0:73:a5:08:7c:61:a1:3e:8a:f1:cf:0f:66:43:86:73:
         de:28:88:45:26:81:a5:e4:93:23:e1:34:ec:6d:43:65:60:5f:
         e8:3f:2f:7a:50:72:26:ed:75:5d:85:d8:b4:53:bd:28:f2:ad:
         6d:f8:b2:5b:31:cc:41:a9:c4:4e:83:f3:3b:75:b0:88:48:b1:
         84:38:0c:a5:9f:1b:47:65:13:56:f2:cd:ae:2a:45:68:97:5f:
         30:1c:13:ef:5b:ee:3a:13:28:8f:45:cd:1c:4d:64:5f:8e:5c:
         cc:7a:f2:d5
-----BEGIN CERTIFICATE-----
MIIDZjCCAk6gAwIBAgIBATANBgkqhkiG9w0BAQsFADBXMQswCQYDVQQGEwJVUzEO
MAwGA1UECAwFVW5zZXQxDjAMBgNVBAcMBVVuc2V0MQ4wDAYDVQQKDAVVbnNldDEY
MBYGA1UEAwwPd3d3LmV4YW1wbGUuY29tMB4XDTE0MTEwMTE1MDkwOVoXDTI0MTAy
OTE1MDkwOVowRzELMAkGA1UEBhMCVVMxDjAMBgNVBAgMBVVuc2V0MQ4wDAYDVQQK
DAVVbnNldDEYMBYGA1UEAwwPd3d3LmV4YW1wbGUuY29tMIIBIjANBgkqhkiG9w0B
AQEFAAOCAQ8AMIIBCgKCAQEAsEvv8yGWFqX+zhA9SJtyu13WE+HNvhtwHwa9QpwW
5b5acHcOOO3EKJmKN2+nG9mt8ysVSbqVK4rgfWGnL+KfcFsCVtSSckYO97PZc58j
yoG6hq5n4C0LjSbkx8S2sZvywPH6SmJc8+8hyMi6ATt2RgQt+GPDLkHxJ+nHT3V8
N3rJSlGNER3nkwLeSsyeqLuW+LuInHgscgNaVKC3gk5zk1jKw0WHmSVZacPiSuf0
ukX9n+lwOQoT980HjwqKJOh83ZBuAnKnaWaQK4cHMp09pcWdFIZKwF50IBwTQwJY
d2ni/kGUc31U+uwzsAWgSQpomdECUuyvIevS2jOreQ4aZwIDAQABo00wSzAJBgNV
HRMEAjAAMB0GA1UdDgQWBBT/4NE5nEQXk3z7NGw7Dvpb2jO0ezAfBgNVHSMEGDAW
gBQewBZhgrGfVfGZ9wScnpQJLUpWDTANBgkqhkiG9w0BAQsFAAOCAQEABSNNF72X
l8mPf+nRZ5YNpLGjsBO+6OiSjrpEauj2MaI9jCfiRQ7kRzziTgy9MVjMxsfEoDM2
d+J8b2qWSbXfbo0EynehZUyHu32PYYMOrWatznh5ePpDZ4+PhSJltqiwi3TXHl8i
M5aQXRCTg/pUUou3xtrmYo0ynSQCdwE4IFt0Z7IBlS3uR1vzebPSgz4ik/Sgc6UI
fGGhPorxzw9mQ4Zz3iiIRSaBpeSTI+E07G1DZWBf6D8velByJu11XYXYtFO9KPKt
bfiyWzHMQanEToPzO3WwiEixhDgMpZ8bR2UTVvLNripFaJdfMBwT71vuOhMoj0XN
HE1kX45czHry1Q==
-----END CERTIFICATE-----
